; Function Attrs: nounwind uwtable
define internal fastcc void @php_iconv_stream_filter_dtor(ptr noundef readonly captures(none) %0) unnamed_addr #0 {
  %2 = load ptr, ptr %0, align 8, !tbaa !96
  %3 = tail call i32 @iconv_close(ptr noundef %2) #16
  %4 = getelementptr inbounds nuw i8, ptr %0, i64 8
  %5 = load i32, ptr %4, align 8, !tbaa !97
  %.not = icmp eq i32 %5, 0
  %6 = getelementptr inbounds nuw i8, ptr %0, i64 16
  %7 = load ptr, ptr %6, align 8, !tbaa !91
  br i1 %.not, label %9, label %8

8:                                                ; preds = %1
  tail call void @free(ptr noundef %7) #16
  br label %10

9:                                                ; preds = %1
  tail call void @_efree(ptr noundef %7) #16
  br label %10

10:                                               ; preds = %9, %8
  %11 = load i32, ptr %4, align 8, !tbaa !97
  %.not7 = icmp eq i32 %11, 0
  %12 = getelementptr inbounds nuw i8, ptr %0, i64 32
  %13 = load ptr, ptr %12, align 8, !tbaa !94
  br i1 %.not7, label %15, label %14

14:                                               ; preds = %10
  tail call void @free(ptr noundef %13) #16
  br label %16

15:                                               ; preds = %10
  tail call void @_efree(ptr noundef %13) #16
  br label %16

16:                                               ; preds = %15, %14
  ret void
}